; Function Attrs: mustprogress uwtable
define internal noundef zeroext i1 @"_ZNSt17_Function_handlerIFbPKdiEZN8LightGBM12CreateBinaryERKNS3_25PredictionEarlyStopConfigEE3$_0E9_M_invokeERKSt9_Any_dataOS1_Oi"(ptr noundef nonnull readonly align 8 captures(none) dereferenceable(16) %0, ptr noundef nonnull readonly align 8 captures(none) dereferenceable(8) %1, ptr noundef nonnull readonly align 4 captures(none) dereferenceable(4) %2) #8 align 2 {
  %.val = load ptr, ptr %1, align 8, !tbaa !20
  %.val3 = load i32, ptr %2, align 4, !tbaa !22
  %.not.i.i.i = icmp eq i32 %.val3, 1
  br i1 %.not.i.i.i, label %"_ZSt10__invoke_rIbRZN8LightGBM12CreateBinaryERKNS0_25PredictionEarlyStopConfigEE3$_0JPKdiEENSt9enable_ifIXsr6__and_ISt6__not_ISt7is_voidIT_EESt14is_convertibleINSt15__invoke_resultIT0_JDpT1_EE4typeESB_EEE5valueESB_E4typeEOSG_DpOSH_.exit", label %4

4:                                                ; preds = %3
  tail call void (ptr, ...) @_ZN8LightGBM3Log5FatalEPKcz(ptr noundef nonnull @.str.4)
  br label %"_ZSt10__invoke_rIbRZN8LightGBM12CreateBinaryERKNS0_25PredictionEarlyStopConfigEE3$_0JPKdiEENSt9enable_ifIXsr6__and_ISt6__not_ISt7is_voidIT_EESt14is_convertibleINSt15__invoke_resultIT0_JDpT1_EE4typeESB_EEE5valueESB_E4typeEOSG_DpOSH_.exit"

"_ZSt10__invoke_rIbRZN8LightGBM12CreateBinaryERKNS0_25PredictionEarlyStopConfigEE3$_0JPKdiEENSt9enable_ifIXsr6__and_ISt6__not_ISt7is_voidIT_EESt14is_convertibleINSt15__invoke_resultIT0_JDpT1_EE4typeESB_EEE5valueESB_E4typeEOSG_DpOSH_.exit": ; preds = %3, %4
  %5 = load double, ptr %.val, align 8, !tbaa !18
  %6 = tail call double @llvm.fabs.f64(double %5)
  %7 = fmul double %6, 2.000000e+00
  %8 = load double, ptr %0, align 8, !tbaa !43
  %9 = fcmp ogt double %7, %8
  ret i1 %9
}